target datalayout = "e-m:e-p270:32:32-p271:32:32-p272:64:64-i64:64-i128:128-f80:128-n8:16:32:64-S128"
target triple = "x86_64-pc-linux-gnu"

%struct.rb_data_type_struct = type { ptr, %struct.anon.12, ptr, ptr, i64 }
%struct.anon.12 = type { ptr, ptr, ptr, ptr, [1 x ptr] }
%struct.proc_entry = type { i64, i64, ptr }
%struct.MEMO = type { i64, i64, i64, i64, %union.anon.17 }
%union.anon.17 = type { i64 }

@proc_entry_data_type = internal constant %struct.rb_data_type_struct { ptr @.str.107, %struct.anon.12 { ptr @proc_entry_mark, ptr inttoptr (i64 -1 to ptr), ptr null, ptr @proc_entry_compact, [1 x ptr] zeroinitializer }, ptr null, ptr null, i64 35 }, align 8

; Function Attrs: inlinehint nounwind sspstrong willreturn memory(none) uwtable
define internal zeroext i1 @RB_TEST(i64 noundef %0) #2 {
  %2 = alloca i64, align 8
  store i64 %0, ptr %2, align 8, !tbaa !7
  %3 = load i64, ptr %2, align 8, !tbaa !7
  %4 = and i64 %3, -5
  %5 = icmp ne i64 %4, 0
  ret i1 %5
}

; Function Attrs: nounwind sspstrong uwtable
define internal ptr @proc_entry_ptr(i64 noundef %0) #0 {
  %2 = alloca i64, align 8
  %3 = alloca ptr, align 8
  store i64 %0, ptr %2, align 8, !tbaa !7
  call void @llvm.lifetime.start.p0(i64 8, ptr %3) #23
  %4 = load i64, ptr %2, align 8, !tbaa !7
  %5 = call ptr @rb_check_typeddata(i64 noundef %4, ptr noundef @proc_entry_data_type)
  store ptr %5, ptr %3, align 8, !tbaa !43
  %6 = load ptr, ptr %3, align 8, !tbaa !43
  call void @llvm.lifetime.end.p0(i64 8, ptr %3) #23
  ret ptr %6
}

; Function Attrs: nounwind sspstrong uwtable
define internal ptr @lazy_grep_proc(i64 noundef %0, ptr noundef %1, i64 noundef %2, i64 noundef %3) #0 {
  %5 = alloca ptr, align 8
  %6 = alloca i64, align 8
  %7 = alloca ptr, align 8
  %8 = alloca i64, align 8
  %9 = alloca i64, align 8
  %10 = alloca ptr, align 8
  %11 = alloca i64, align 8
  %12 = alloca i32, align 4
  store i64 %0, ptr %6, align 8, !tbaa !7
  store ptr %1, ptr %7, align 8, !tbaa !101
  store i64 %2, ptr %8, align 8, !tbaa !7
  store i64 %3, ptr %9, align 8, !tbaa !7
  call void @llvm.lifetime.start.p0(i64 8, ptr %10) #23
  %13 = load i64, ptr %6, align 8, !tbaa !7
  %14 = call ptr @proc_entry_ptr(i64 noundef %13)
  store ptr %14, ptr %10, align 8, !tbaa !43
  call void @llvm.lifetime.start.p0(i64 8, ptr %11) #23
  %15 = load ptr, ptr %10, align 8, !tbaa !43
  %16 = getelementptr inbounds nuw %struct.proc_entry, ptr %15, i32 0, i32 1
  %17 = load i64, ptr %16, align 8, !tbaa !100
  %18 = load ptr, ptr %7, align 8, !tbaa !101
  %19 = getelementptr inbounds nuw %struct.MEMO, ptr %18, i32 0, i32 3
  %20 = load i64, ptr %19, align 8, !tbaa !122
  %21 = call i64 (i64, i64, i32, ...) @rb_funcall(i64 noundef %17, i64 noundef 141, i32 noundef 1, i64 noundef %20)
  store i64 %21, ptr %11, align 8, !tbaa !7
  %22 = load i64, ptr %11, align 8, !tbaa !7
  %23 = call zeroext i1 @RB_TEST(i64 noundef %22) #24
  br i1 %23, label %25, label %24

24:                                               ; preds = %4
  store ptr null, ptr %5, align 8
  store i32 1, ptr %12, align 4
  br label %27

25:                                               ; preds = %4
  %26 = load ptr, ptr %7, align 8, !tbaa !101
  store ptr %26, ptr %5, align 8
  store i32 1, ptr %12, align 4
  br label %27

27:                                               ; preds = %25, %24
  call void @llvm.lifetime.end.p0(i64 8, ptr %11) #23
  call void @llvm.lifetime.end.p0(i64 8, ptr %10) #23
  %28 = load ptr, ptr %5, align 8
  ret ptr %28
}