; Function Attrs: nounwind sspstrong uwtable
define internal ptr @lazy_grep_proc(i64 noundef %0, ptr noundef readonly captures(ret: address, provenance) %1, i64 %2, i64 %3) #0 {
  %5 = tail call ptr @rb_check_typeddata(i64 noundef %0, ptr noundef nonnull @proc_entry_data_type) #18
  %6 = getelementptr inbounds nuw i8, ptr %5, i64 8
  %7 = load i64, ptr %6, align 8, !tbaa !94
  %8 = getelementptr inbounds nuw i8, ptr %1, i64 24
  %9 = load i64, ptr %8, align 8, !tbaa !105
  %10 = tail call i64 (i64, i64, i32, ...) @rb_funcall(i64 noundef %7, i64 noundef 141, i32 noundef 1, i64 noundef %9) #18
  %11 = and i64 %10, -5
  %.not = icmp eq i64 %11, 0
  %. = select i1 %.not, ptr null, ptr %1
  ret ptr %.
}